; ModuleID = '52/1294.c'
source_filename = "52/1294.c"
target datalayout = "e-m:e-p270:32:32-p271:32:32-p272:64:64-i64:64-f80:128-n8:16:32:64-S128"
target triple = "x86_64-pc-linux-gnu"

@.str = private unnamed_addr constant [6 x i8] c"%d %d\00", align 1
@.str.1 = private unnamed_addr constant [3 x i8] c"%d\00", align 1
@.str.2 = private unnamed_addr constant [2 x i8] c" \00", align 1
@.str.3 = private unnamed_addr constant [2 x i8] c"\0A\00", align 1

; Function Attrs: noinline nounwind uwtable
define dso_local void @main() #0 {
  %1 = alloca i32, align 4
  %2 = alloca i32, align 4
  %3 = alloca i32, align 4
  %4 = alloca i32*, align 8
  %5 = alloca i32, align 4
  %6 = alloca [100 x i32], align 16
  %7 = call i32 (i8*, ...) @__isoc99_scanf(i8* getelementptr inbounds ([6 x i8], [6 x i8]* @.str, i64 0, i64 0), i32* %2, i32* %1)
  store i32 0, i32* %3, align 4
  br label %8

8:                                                ; preds = %17, %0
  %9 = load i32, i32* %3, align 4
  %10 = load i32, i32* %2, align 4
  %11 = icmp slt i32 %9, %10
  br i1 %11, label %12, label %20

12:                                               ; preds = %8
  %13 = load i32, i32* %3, align 4
  %14 = sext i32 %13 to i64
  %15 = getelementptr inbounds [100 x i32], [100 x i32]* %6, i64 0, i64 %14
  %16 = call i32 (i8*, ...) @__isoc99_scanf(i8* getelementptr inbounds ([3 x i8], [3 x i8]* @.str.1, i64 0, i64 0), i32* %15)
  br label %17

17:                                               ; preds = %12
  %18 = load i32, i32* %3, align 4
  %19 = add nsw i32 %18, 1
  store i32 %19, i32* %3, align 4
  br label %8

20:                                               ; preds = %8
  store i32 1, i32* %3, align 4
  br label %21

21:                                               ; preds = %50, %20
  %22 = load i32, i32* %3, align 4
  %23 = load i32, i32* %1, align 4
  %24 = icmp sle i32 %22, %23
  br i1 %24, label %25, label %53

25:                                               ; preds = %21
  %26 = load i32, i32* %2, align 4
  %27 = sub nsw i32 %26, 1
  %28 = sext i32 %27 to i64
  %29 = getelementptr inbounds [100 x i32], [100 x i32]* %6, i64 0, i64 %28
  %30 = load i32, i32* %29, align 4
  store i32 %30, i32* %5, align 4
  %31 = getelementptr inbounds [100 x i32], [100 x i32]* %6, i64 0, i64 0
  %32 = load i32, i32* %2, align 4
  %33 = sext i32 %32 to i64
  %34 = getelementptr inbounds i32, i32* %31, i64 %33
  %35 = getelementptr inbounds i32, i32* %34, i64 -1
  store i32* %35, i32** %4, align 8
  br label %36

36:                                               ; preds = %40, %25
  %37 = load i32*, i32** %4, align 8
  %38 = getelementptr inbounds [100 x i32], [100 x i32]* %6, i64 0, i64 0
  %39 = icmp ne i32* %37, %38
  br i1 %39, label %40, label %47

40:                                               ; preds = %36
  %41 = load i32*, i32** %4, align 8
  %42 = getelementptr inbounds i32, i32* %41, i64 -1
  %43 = load i32, i32* %42, align 4
  %44 = load i32*, i32** %4, align 8
  store i32 %43, i32* %44, align 4
  %45 = load i32*, i32** %4, align 8
  %46 = getelementptr inbounds i32, i32* %45, i32 -1
  store i32* %46, i32** %4, align 8
  br label %36

47:                                               ; preds = %36
  %48 = load i32, i32* %5, align 4
  %49 = getelementptr inbounds [100 x i32], [100 x i32]* %6, i64 0, i64 0
  store i32 %48, i32* %49, align 16
  br label %50

50:                                               ; preds = %47
  %51 = load i32, i32* %3, align 4
  %52 = add nsw i32 %51, 1
  store i32 %52, i32* %3, align 4
  br label %21

53:                                               ; preds = %21
  store i32 0, i32* %3, align 4
  br label %54

54:                                               ; preds = %69, %53
  %55 = load i32, i32* %3, align 4
  %56 = load i32, i32* %2, align 4
  %57 = icmp slt i32 %55, %56
  br i1 %57, label %58, label %72

58:                                               ; preds = %54
  %59 = load i32, i32* %3, align 4
  %60 = icmp ne i32 %59, 0
  br i1 %60, label %61, label %63

61:                                               ; preds = %58
  %62 = call i32 (i8*, ...) @printf(i8* getelementptr inbounds ([2 x i8], [2 x i8]* @.str.2, i64 0, i64 0))
  br label %63

63:                                               ; preds = %61, %58
  %64 = load i32, i32* %3, align 4
  %65 = sext i32 %64 to i64
  %66 = getelementptr inbounds [100 x i32], [100 x i32]* %6, i64 0, i64 %65
  %67 = load i32, i32* %66, align 4
  %68 = call i32 (i8*, ...) @printf(i8* getelementptr inbounds ([3 x i8], [3 x i8]* @.str.1, i64 0, i64 0), i32 %67)
  br label %69

69:                                               ; preds = %63
  %70 = load i32, i32* %3, align 4
  %71 = add nsw i32 %70, 1
  store i32 %71, i32* %3, align 4
  br label %54

72:                                               ; preds = %54
  %73 = call i32 (i8*, ...) @printf(i8* getelementptr inbounds ([2 x i8], [2 x i8]* @.str.3, i64 0, i64 0))
  ret void
}

declare dso_local i32 @__isoc99_scanf(i8*, ...) #1

declare dso_local i32 @printf(i8*, ...) #1


!llvm.module.flags = !{!0}
!llvm.ident = !{!1}

!0 = !{i32 1, !"wchar_size", i32 4}
!1 = !{!"clang version 10.0.0-4ubuntu1 "}
